target datalayout = "e-m:e-p270:32:32-p271:32:32-p272:64:64-i64:64-i128:128-f80:128-n8:16:32:64-S128"
target triple = "x86_64-pc-linux-gnu"

%"class.std::__cxx11::basic_string" = type { %"struct.std::__cxx11::basic_string<char>::_Alloc_hider", i64, %union.anon }
%"struct.std::__cxx11::basic_string<char>::_Alloc_hider" = type { ptr }
%union.anon = type { i64, [8 x i8] }
%"struct.casadi::Variable" = type { i64, %"class.std::__cxx11::basic_string", %"class.std::vector.3", i64, i32, %"class.std::__cxx11::basic_string", i32, i32, i32, i32, %"class.std::__cxx11::basic_string", %"class.std::__cxx11::basic_string", i32, double, double, double, %"class.std::vector.8", i64, i64, i64, %"class.std::vector.8", %"class.std::__cxx11::basic_string", i8, %"class.std::vector.3", %"class.std::vector.13", %"class.casadi::MX", %"class.casadi::MX", %"class.casadi::MX" }
%"class.std::vector.8" = type { %"struct.std::_Vector_base.9" }
%"struct.std::_Vector_base.9" = type { %"struct.std::_Vector_base<double, std::allocator<double>>::_Vector_impl" }
%"struct.std::_Vector_base<double, std::allocator<double>>::_Vector_impl" = type { %"struct.std::_Vector_base<double, std::allocator<double>>::_Vector_impl_data" }
%"struct.std::_Vector_base<double, std::allocator<double>>::_Vector_impl_data" = type { ptr, ptr, ptr }
%"class.std::vector.3" = type { %"struct.std::_Vector_base.4" }
%"struct.std::_Vector_base.4" = type { %"struct.std::_Vector_base<long long, std::allocator<long long>>::_Vector_impl" }
%"struct.std::_Vector_base<long long, std::allocator<long long>>::_Vector_impl" = type { %"struct.std::_Vector_base<long long, std::allocator<long long>>::_Vector_impl_data" }
%"struct.std::_Vector_base<long long, std::allocator<long long>>::_Vector_impl_data" = type { ptr, ptr, ptr }
%"class.std::vector.13" = type { %"struct.std::_Vector_base.14" }
%"struct.std::_Vector_base.14" = type { %"struct.std::_Vector_base<casadi::DependenciesKind, std::allocator<casadi::DependenciesKind>>::_Vector_impl" }
%"struct.std::_Vector_base<casadi::DependenciesKind, std::allocator<casadi::DependenciesKind>>::_Vector_impl" = type { %"struct.std::_Vector_base<casadi::DependenciesKind, std::allocator<casadi::DependenciesKind>>::_Vector_impl_data" }
%"struct.std::_Vector_base<casadi::DependenciesKind, std::allocator<casadi::DependenciesKind>>::_Vector_impl_data" = type { ptr, ptr, ptr }
%"class.casadi::MX" = type { %"class.casadi::SharedObject" }
%"class.casadi::SharedObject" = type { %"class.casadi::GenericShared" }
%"class.casadi::GenericShared" = type { ptr }

; Function Attrs: mustprogress nounwind uwtable
define noundef zeroext i1 @_ZNK6casadi8Variable9has_startEv(ptr noundef nonnull align 8 dereferenceable(408) %0) #5 align 2 {
  %2 = alloca i1, align 1
  %3 = alloca ptr, align 8
  store ptr %0, ptr %3, align 8, !tbaa !48
  %4 = load ptr, ptr %3, align 8
  %5 = getelementptr inbounds nuw %"struct.casadi::Variable", ptr %4, i32 0, i32 12
  %6 = load i32, ptr %5, align 8, !tbaa !94
  %7 = icmp eq i32 %6, 0
  br i1 %7, label %12, label %8

8:                                                ; preds = %1
  %9 = getelementptr inbounds nuw %"struct.casadi::Variable", ptr %4, i32 0, i32 12
  %10 = load i32, ptr %9, align 8, !tbaa !94
  %11 = icmp eq i32 %10, 1
  br i1 %11, label %12, label %13

12:                                               ; preds = %8, %1
  store i1 true, ptr %2, align 1
  br label %38

13:                                               ; preds = %8
  %14 = getelementptr inbounds nuw %"struct.casadi::Variable", ptr %4, i32 0, i32 12
  %15 = load i32, ptr %14, align 8, !tbaa !94
  %16 = icmp eq i32 %15, 2
  br i1 %16, label %21, label %17

17:                                               ; preds = %13
  %18 = getelementptr inbounds nuw %"struct.casadi::Variable", ptr %4, i32 0, i32 7
  %19 = load i32, ptr %18, align 4, !tbaa !91
  %20 = icmp eq i32 %19, 5
  br i1 %20, label %21, label %22

21:                                               ; preds = %17, %13
  store i1 false, ptr %2, align 1
  br label %38

22:                                               ; preds = %17
  %23 = getelementptr inbounds nuw %"struct.casadi::Variable", ptr %4, i32 0, i32 7
  %24 = load i32, ptr %23, align 4, !tbaa !91
  %25 = icmp eq i32 %24, 0
  br i1 %25, label %26, label %27

26:                                               ; preds = %22
  store i1 true, ptr %2, align 1
  br label %38

27:                                               ; preds = %22
  %28 = getelementptr inbounds nuw %"struct.casadi::Variable", ptr %4, i32 0, i32 7
  %29 = load i32, ptr %28, align 4, !tbaa !91
  %30 = icmp eq i32 %29, 2
  br i1 %30, label %31, label %32

31:                                               ; preds = %27
  store i1 true, ptr %2, align 1
  br label %38

32:                                               ; preds = %27
  %33 = getelementptr inbounds nuw %"struct.casadi::Variable", ptr %4, i32 0, i32 8
  %34 = load i32, ptr %33, align 8, !tbaa !92
  %35 = icmp eq i32 %34, 0
  br i1 %35, label %36, label %37

36:                                               ; preds = %32
  store i1 true, ptr %2, align 1
  br label %38

37:                                               ; preds = %32
  store i1 false, ptr %2, align 1
  br label %38

38:                                               ; preds = %37, %36, %31, %26, %21, %12
  %39 = load i1, ptr %2, align 1
  ret i1 %39
}