; Function Attrs: mustprogress nofree norecurse nosync nounwind willreturn memory(argmem: read) uwtable
define noundef zeroext i1 @_ZNK6casadi8Variable9has_startEv(ptr noundef nonnull readonly align 8 captures(none) dereferenceable(408) %0) local_unnamed_addr #10 align 2 {
  %2 = getelementptr inbounds nuw i8, ptr %0, i64 192
  %3 = load i32, ptr %2, align 8, !tbaa !101
  %4 = icmp ult i32 %3, 3
  br i1 %4, label %switch.lookup, label %5

5:                                                ; preds = %1
  %6 = getelementptr inbounds nuw i8, ptr %0, i64 116
  %7 = load i32, ptr %6, align 4, !tbaa !98
  switch i32 %7, label %9 [
    i32 5, label %8
    i32 0, label %13
    i32 2, label %13
  ]

8:                                                ; preds = %5
  br label %13

9:                                                ; preds = %5
  %10 = getelementptr inbounds nuw i8, ptr %0, i64 120
  %11 = load i32, ptr %10, align 8, !tbaa !99
  %12 = icmp eq i32 %11, 0
  br label %13

switch.lookup:                                    ; preds = %1
  %switch.cast = trunc nuw i32 %3 to i3
  %switch.downshift = lshr i3 3, %switch.cast
  %switch.masked = trunc i3 %switch.downshift to i1
  br label %13

13:                                               ; preds = %switch.lookup, %9, %5, %5, %8
  %.0 = phi i1 [ false, %8 ], [ true, %5 ], [ true, %5 ], [ %12, %9 ], [ %switch.masked, %switch.lookup ]
  ret i1 %.0
}